target datalayout = "e-m:e-p270:32:32-p271:32:32-p272:64:64-i64:64-i128:128-f80:128-n8:16:32:64-S128"
target triple = "x86_64-pc-linux-gnu"

%struct.msxml_cbdata = type { i32, ptr, ptr, i64, i64, i64 }
%struct.cli_ctx_tag = type { ptr, ptr, ptr, ptr, ptr, ptr, ptr, i64, ptr, i32, i32, ptr, i32, i32, ptr, [16 x i8], ptr, ptr, ptr, ptr, ptr, ptr, %struct.timeval, i8, i8 }
%struct.timeval = type { i64, i64 }

@.str.1 = private unnamed_addr constant [20 x i8] c"in cli_scanmsxml()\0A\00", align 1
@.str.2 = private unnamed_addr constant [10 x i8] c"msxml.xml\00", align 1
@.str.3 = private unnamed_addr constant [44 x i8] c"cli_scanmsxml: cannot initialize xmlReader\0A\00", align 1
@.str.4 = private unnamed_addr constant [26 x i8] c"OOXML_ERROR_XML_READER_IO\00", align 1
@num_msxml_keys = internal global i64 20, align 8

; Function Attrs: nounwind uwtable
define i32 @cli_scanmsxml(ptr noundef %0) #0 {
  %2 = alloca i32, align 4
  %3 = alloca ptr, align 8
  %4 = alloca %struct.msxml_cbdata, align 8
  %5 = alloca ptr, align 8
  %6 = alloca i32, align 4
  %7 = alloca i32, align 4
  store ptr %0, ptr %3, align 8, !tbaa !27
  call void @llvm.lifetime.start.p0(i64 48, ptr %4) #5
  call void @llvm.lifetime.start.p0(i64 8, ptr %5) #5
  store ptr null, ptr %5, align 8, !tbaa !29
  call void @llvm.lifetime.start.p0(i64 4, ptr %6) #5
  store i32 0, ptr %6, align 4, !tbaa !9
  call void (ptr, ...) @cli_dbgmsg(ptr noundef @.str.1)
  %8 = load ptr, ptr %3, align 8, !tbaa !27
  %9 = icmp ne ptr %8, null
  br i1 %9, label %11, label %10

10:                                               ; preds = %1
  store i32 2, ptr %2, align 4
  store i32 1, ptr %7, align 4
  br label %34

11:                                               ; preds = %1
  call void @llvm.memset.p0.i64(ptr align 8 %4, i8 0, i64 48, i1 false)
  %12 = load ptr, ptr %3, align 8, !tbaa !27
  %13 = getelementptr inbounds nuw %struct.cli_ctx_tag, ptr %12, i32 0, i32 14
  %14 = load ptr, ptr %13, align 8, !tbaa !31
  %15 = getelementptr inbounds nuw %struct.msxml_cbdata, ptr %4, i32 0, i32 1
  store ptr %14, ptr %15, align 8, !tbaa !22
  %16 = call ptr @xmlReaderForIO(ptr noundef @msxml_read_cb, ptr noundef null, ptr noundef %4, ptr noundef @.str.2, ptr noundef null, i32 noundef 2080)
  store ptr %16, ptr %5, align 8, !tbaa !29
  %17 = load ptr, ptr %5, align 8, !tbaa !29
  %18 = icmp ne ptr %17, null
  br i1 %18, label %25, label %19

19:                                               ; preds = %11
  call void (ptr, ...) @cli_dbgmsg(ptr noundef @.str.3)
  %20 = load ptr, ptr %3, align 8, !tbaa !27
  %21 = getelementptr inbounds nuw %struct.cli_ctx_tag, ptr %20, i32 0, i32 21
  %22 = load ptr, ptr %21, align 8, !tbaa !42
  %23 = call i32 @cli_json_parse_error(ptr noundef %22, ptr noundef @.str.4)
  store i32 %23, ptr %6, align 4, !tbaa !9
  %24 = load i32, ptr %6, align 4, !tbaa !9
  store i32 %24, ptr %2, align 4
  store i32 1, ptr %7, align 4
  br label %34

25:                                               ; preds = %11
  %26 = load ptr, ptr %3, align 8, !tbaa !27
  %27 = load ptr, ptr %5, align 8, !tbaa !29
  %28 = load i64, ptr @num_msxml_keys, align 8, !tbaa !13
  %29 = call i32 @cli_msxml_parse_document(ptr noundef %26, ptr noundef %27, ptr noundef @msxml_keys, i64 noundef %28, i32 noundef 1, ptr noundef null)
  store i32 %29, ptr %6, align 4, !tbaa !9
  %30 = load ptr, ptr %5, align 8, !tbaa !29
  %31 = call i32 @xmlTextReaderClose(ptr noundef %30)
  %32 = load ptr, ptr %5, align 8, !tbaa !29
  call void @xmlFreeTextReader(ptr noundef %32)
  %33 = load i32, ptr %6, align 4, !tbaa !9
  store i32 %33, ptr %2, align 4
  store i32 1, ptr %7, align 4
  br label %34

34:                                               ; preds = %25, %19, %10
  call void @llvm.lifetime.end.p0(i64 4, ptr %6) #5
  call void @llvm.lifetime.end.p0(i64 8, ptr %5) #5
  call void @llvm.lifetime.end.p0(i64 48, ptr %4) #5
  %35 = load i32, ptr %2, align 4
  ret i32 %35
}