; Function Attrs: nounwind uwtable
define i32 @cli_scanmsxml(ptr noundef %0) local_unnamed_addr #0 {
  %2 = alloca %struct.msxml_cbdata, align 8
  call void @llvm.lifetime.start.p0(i64 48, ptr nonnull %2) #5
  tail call void (ptr, ...) @cli_dbgmsg(ptr noundef nonnull @.str.1) #5
  %.not = icmp eq ptr %0, null
  br i1 %.not, label %15, label %3

3:                                                ; preds = %1
  call void @llvm.memset.p0.i64(ptr noundef nonnull align 8 dereferenceable(48) %2, i8 0, i64 48, i1 false)
  %4 = getelementptr inbounds nuw i8, ptr %0, i64 96
  %5 = load ptr, ptr %4, align 8, !tbaa !23
  %6 = getelementptr inbounds nuw i8, ptr %2, i64 8
  store ptr %5, ptr %6, align 8, !tbaa !15
  %7 = call ptr @xmlReaderForIO(ptr noundef nonnull @msxml_read_cb, ptr noundef null, ptr noundef nonnull %2, ptr noundef nonnull @.str.2, ptr noundef null, i32 noundef 2080) #5
  %.not12 = icmp eq ptr %7, null
  br i1 %.not12, label %8, label %12

8:                                                ; preds = %3
  call void (ptr, ...) @cli_dbgmsg(ptr noundef nonnull @.str.3) #5
  %9 = getelementptr inbounds nuw i8, ptr %0, i64 160
  %10 = load ptr, ptr %9, align 8, !tbaa !34
  %11 = call i32 @cli_json_parse_error(ptr noundef %10, ptr noundef nonnull @.str.4) #5
  br label %15

12:                                               ; preds = %3
  %13 = call i32 @cli_msxml_parse_document(ptr noundef nonnull %0, ptr noundef nonnull %7, ptr noundef nonnull @msxml_keys, i64 noundef 20, i32 noundef 1, ptr noundef null) #5
  %14 = call i32 @xmlTextReaderClose(ptr noundef nonnull %7) #5
  call void @xmlFreeTextReader(ptr noundef nonnull %7) #5
  br label %15

15:                                               ; preds = %1, %12, %8
  %.0 = phi i32 [ %13, %12 ], [ %11, %8 ], [ 2, %1 ]
  call void @llvm.lifetime.end.p0(i64 48, ptr nonnull %2) #5
  ret i32 %.0
}